; Function Attrs: mustprogress uwtable
define hidden void @_ZN7Imf_3_214FlatImageLevel6resizeERKN9Imath_3_23BoxINS1_4Vec2IiEEEE(ptr noundef nonnull align 8 dereferenceable(88) %this, ptr noundef nonnull align 4 dereferenceable(16) %dataWindow) unnamed_addr #3 align 2 {
entry:
  tail call void @_ZN7Imf_3_210ImageLevel6resizeERKN9Imath_3_23BoxINS1_4Vec2IiEEEE(ptr noundef nonnull align 8 dereferenceable(40) %this, ptr noundef nonnull align 4 dereferenceable(16) %dataWindow)
  %_M_left.i.i = getelementptr inbounds i8, ptr %this, i64 64
  %0 = load ptr, ptr %_M_left.i.i, align 8
  %add.ptr.i.i = getelementptr inbounds i8, ptr %this, i64 48
  %cmp.i.not3 = icmp eq ptr %0, %add.ptr.i.i
  br i1 %cmp.i.not3, label %for.end, label %for.body

for.body:                                         ; preds = %entry, %for.body
  %i.sroa.0.04 = phi ptr [ %call.i, %for.body ], [ %0, %entry ]
  %second = getelementptr inbounds i8, ptr %i.sroa.0.04, i64 64
  %1 = load ptr, ptr %second, align 8
  %vtable = load ptr, ptr %1, align 8
  %vfn = getelementptr inbounds i8, ptr %vtable, i64 24
  %2 = load ptr, ptr %vfn, align 8
  tail call void %2(ptr noundef nonnull align 8 dereferenceable(48) %1)
  %call.i = tail call noundef ptr @_ZSt18_Rb_tree_incrementPSt18_Rb_tree_node_base(ptr noundef %i.sroa.0.04) #13
  %cmp.i.not = icmp eq ptr %call.i, %add.ptr.i.i
  br i1 %cmp.i.not, label %for.end, label %for.body, !llvm.loop !4

for.end:                                          ; preds = %for.body, %entry
  ret void
}